; Function Attrs: nounwind uwtable
define internal zeroext i1 @eval_f(i32 noundef %0, ptr noundef %1, i1 noundef zeroext %2, ptr noundef %3, ptr noundef readonly captures(none) %4) #0 {
  %6 = alloca i32, align 4
  %7 = alloca i32, align 4
  %8 = alloca i32, align 4
  call void @llvm.lifetime.start.p0(i64 4, ptr nonnull %6) #8
  store i32 %0, ptr %6, align 4, !tbaa !3
  call void @llvm.lifetime.start.p0(i64 4, ptr nonnull %7) #8
  %9 = zext i1 %2 to i32
  store i32 %9, ptr %7, align 4, !tbaa !3
  %10 = load ptr, ptr %4, align 8, !tbaa !19
  %11 = getelementptr inbounds nuw i8, ptr %4, i64 8
  %12 = load ptr, ptr %11, align 8, !tbaa !20
  call void @llvm.lifetime.start.p0(i64 4, ptr nonnull %8) #8
  store i32 0, ptr %8, align 4, !tbaa !3
  %13 = getelementptr inbounds nuw i8, ptr %4, i64 16
  %14 = load ptr, ptr %13, align 8, !tbaa !13
  call void %14(ptr noundef nonnull %6, ptr noundef %1, ptr noundef nonnull %7, ptr noundef %3, ptr noundef %10, ptr noundef %12, ptr noundef nonnull %8) #8
  %15 = load i32, ptr %8, align 4, !tbaa !3
  %16 = icmp eq i32 %15, 0
  call void @llvm.lifetime.end.p0(i64 4, ptr nonnull %8) #8
  call void @llvm.lifetime.end.p0(i64 4, ptr nonnull %7) #8
  call void @llvm.lifetime.end.p0(i64 4, ptr nonnull %6) #8
  ret i1 %16
}